target datalayout = "e-m:e-p270:32:32-p271:32:32-p272:64:64-i64:64-i128:128-f80:128-n8:16:32:64-S128"
target triple = "x86_64-pc-linux-gnu"

%struct.TuplesortPublic = type { ptr, ptr, ptr, ptr, ptr, ptr, ptr, ptr, ptr, i8, i32, ptr, ptr, i32, i8, ptr }
%struct.SortSupportData = type { ptr, i32, i8, i8, i16, ptr, ptr, i8, ptr, ptr, ptr }
%struct.HeapTupleData = type { i32, %struct.ItemPointerData, i32, ptr }
%struct.ItemPointerData = type { %struct.BlockIdData, i16 }
%struct.BlockIdData = type { i16, i16 }
%struct.SortTuple = type { ptr, i64, i8, i32 }
%struct.MinimalTupleData = type { i32, [6 x i8], i16, i16, i8, [0 x i8] }

@.str.1 = private unnamed_addr constant [20 x i8] c"tuplesortvariants.c\00", align 1
@.str.8 = private unnamed_addr constant [23 x i8] c"unexpected end of data\00", align 1
@__func__.readtup_heap = private unnamed_addr constant [13 x i8] c"readtup_heap\00", align 1

; Function Attrs: nounwind uwtable
define internal void @readtup_heap(ptr noundef %0, ptr noundef %1, ptr noundef %2, i32 noundef %3) #0 {
  %5 = alloca ptr, align 8
  %6 = alloca ptr, align 8
  %7 = alloca ptr, align 8
  %8 = alloca i32, align 4
  %9 = alloca i32, align 4
  %10 = alloca i32, align 4
  %11 = alloca ptr, align 8
  %12 = alloca ptr, align 8
  %13 = alloca ptr, align 8
  %14 = alloca %struct.HeapTupleData, align 8
  store ptr %0, ptr %5, align 8
  store ptr %1, ptr %6, align 8
  store ptr %2, ptr %7, align 8
  store i32 %3, ptr %8, align 4
  call void @llvm.lifetime.start.p0(i64 4, ptr %9) #6
  %15 = load i32, ptr %8, align 4
  %16 = zext i32 %15 to i64
  %17 = sub i64 %16, 4
  %18 = trunc i64 %17 to i32
  store i32 %18, ptr %9, align 4
  call void @llvm.lifetime.start.p0(i64 4, ptr %10) #6
  %19 = load i32, ptr %9, align 4
  %20 = zext i32 %19 to i64
  %21 = add i64 %20, 10
  %22 = trunc i64 %21 to i32
  store i32 %22, ptr %10, align 4
  call void @llvm.lifetime.start.p0(i64 8, ptr %11) #6
  %23 = load ptr, ptr %5, align 8
  %24 = load i32, ptr %10, align 4
  %25 = zext i32 %24 to i64
  %26 = call ptr @tuplesort_readtup_alloc(ptr noundef %23, i64 noundef %25)
  store ptr %26, ptr %11, align 8
  call void @llvm.lifetime.start.p0(i64 8, ptr %12) #6
  %27 = load ptr, ptr %11, align 8
  %28 = getelementptr inbounds nuw i8, ptr %27, i64 10
  store ptr %28, ptr %12, align 8
  call void @llvm.lifetime.start.p0(i64 8, ptr %13) #6
  %29 = load ptr, ptr %5, align 8
  store ptr %29, ptr %13, align 8
  call void @llvm.lifetime.start.p0(i64 24, ptr %14) #6
  %30 = load i32, ptr %10, align 4
  %31 = load ptr, ptr %11, align 8
  %32 = getelementptr inbounds nuw %struct.MinimalTupleData, ptr %31, i32 0, i32 0
  store i32 %30, ptr %32, align 4
  br label %33

33:                                               ; preds = %4
  %34 = load ptr, ptr %7, align 8
  %35 = load ptr, ptr %12, align 8
  %36 = load i32, ptr %9, align 4
  %37 = zext i32 %36 to i64
  %38 = call i64 @LogicalTapeRead(ptr noundef %34, ptr noundef %35, i64 noundef %37)
  %39 = load i32, ptr %9, align 4
  %40 = zext i32 %39 to i64
  %41 = icmp ne i64 %38, %40
  br i1 %41, label %42, label %53

42:                                               ; preds = %33
  br label %43

43:                                               ; preds = %42
  br i1 true, label %44, label %46

44:                                               ; preds = %43
  %45 = call zeroext i1 @errstart_cold(i32 noundef 21, ptr noundef null) #7
  br i1 %45, label %48, label %50

46:                                               ; preds = %43
  %47 = call zeroext i1 @errstart(i32 noundef 21, ptr noundef null)
  br i1 %47, label %48, label %50

48:                                               ; preds = %46, %44
  %49 = call i32 (ptr, ...) @errmsg_internal(ptr noundef @.str.8)
  call void @errfinish(ptr noundef @.str.1, i32 noundef 1175, ptr noundef @__func__.readtup_heap)
  br label %50

50:                                               ; preds = %48, %46, %44
  unreachable

51:                                               ; No predecessors!
  br label %52

52:                                               ; preds = %51
  br label %53

53:                                               ; preds = %52, %33
  br label %54

54:                                               ; preds = %53
  br label %55

55:                                               ; preds = %54
  %56 = load ptr, ptr %13, align 8
  %57 = getelementptr inbounds nuw %struct.TuplesortPublic, ptr %56, i32 0, i32 13
  %58 = load i32, ptr %57, align 8
  %59 = and i32 %58, 1
  %60 = icmp ne i32 %59, 0
  br i1 %60, label %61, label %80

61:                                               ; preds = %55
  br label %62

62:                                               ; preds = %61
  %63 = load ptr, ptr %7, align 8
  %64 = call i64 @LogicalTapeRead(ptr noundef %63, ptr noundef %10, i64 noundef 4)
  %65 = icmp ne i64 %64, 4
  br i1 %65, label %66, label %77

66:                                               ; preds = %62
  br label %67

67:                                               ; preds = %66
  br i1 true, label %68, label %70

68:                                               ; preds = %67
  %69 = call zeroext i1 @errstart_cold(i32 noundef 21, ptr noundef null) #7
  br i1 %69, label %72, label %74

70:                                               ; preds = %67
  %71 = call zeroext i1 @errstart(i32 noundef 21, ptr noundef null)
  br i1 %71, label %72, label %74

72:                                               ; preds = %70, %68
  %73 = call i32 (ptr, ...) @errmsg_internal(ptr noundef @.str.8)
  call void @errfinish(ptr noundef @.str.1, i32 noundef 1177, ptr noundef @__func__.readtup_heap)
  br label %74

74:                                               ; preds = %72, %70, %68
  unreachable

75:                                               ; No predecessors!
  br label %76

76:                                               ; preds = %75
  br label %77

77:                                               ; preds = %76, %62
  br label %78

78:                                               ; preds = %77
  br label %79

79:                                               ; preds = %78
  br label %80

80:                                               ; preds = %79, %55
  %81 = load ptr, ptr %11, align 8
  %82 = load ptr, ptr %6, align 8
  %83 = getelementptr inbounds nuw %struct.SortTuple, ptr %82, i32 0, i32 0
  store ptr %81, ptr %83, align 8
  %84 = load ptr, ptr %11, align 8
  %85 = getelementptr inbounds nuw %struct.MinimalTupleData, ptr %84, i32 0, i32 0
  %86 = load i32, ptr %85, align 4
  %87 = zext i32 %86 to i64
  %88 = add i64 %87, 8
  %89 = trunc i64 %88 to i32
  %90 = getelementptr inbounds nuw %struct.HeapTupleData, ptr %14, i32 0, i32 0
  store i32 %89, ptr %90, align 8
  %91 = load ptr, ptr %11, align 8
  %92 = getelementptr inbounds i8, ptr %91, i64 -8
  %93 = getelementptr inbounds nuw %struct.HeapTupleData, ptr %14, i32 0, i32 3
  store ptr %92, ptr %93, align 8
  %94 = load ptr, ptr %13, align 8
  %95 = getelementptr inbounds nuw %struct.TuplesortPublic, ptr %94, i32 0, i32 11
  %96 = load ptr, ptr %95, align 8
  %97 = getelementptr inbounds %struct.SortSupportData, ptr %96, i64 0
  %98 = getelementptr inbounds nuw %struct.SortSupportData, ptr %97, i32 0, i32 4
  %99 = load i16, ptr %98, align 2
  %100 = sext i16 %99 to i32
  %101 = load ptr, ptr %13, align 8
  %102 = getelementptr inbounds nuw %struct.TuplesortPublic, ptr %101, i32 0, i32 15
  %103 = load ptr, ptr %102, align 8
  %104 = load ptr, ptr %6, align 8
  %105 = getelementptr inbounds nuw %struct.SortTuple, ptr %104, i32 0, i32 2
  %106 = call i64 @heap_getattr(ptr noundef %14, i32 noundef %100, ptr noundef %103, ptr noundef %105)
  %107 = load ptr, ptr %6, align 8
  %108 = getelementptr inbounds nuw %struct.SortTuple, ptr %107, i32 0, i32 1
  store i64 %106, ptr %108, align 8
  call void @llvm.lifetime.end.p0(i64 24, ptr %14) #6
  call void @llvm.lifetime.end.p0(i64 8, ptr %13) #6
  call void @llvm.lifetime.end.p0(i64 8, ptr %12) #6
  call void @llvm.lifetime.end.p0(i64 8, ptr %11) #6
  call void @llvm.lifetime.end.p0(i64 4, ptr %10) #6
  call void @llvm.lifetime.end.p0(i64 4, ptr %9) #6
  ret void
}