; Function Attrs: nounwind uwtable
define internal void @readtup_heap(ptr noundef %0, ptr noundef %1, ptr noundef %2, i32 noundef %3) #0 {
  %5 = alloca i32, align 4
  %6 = alloca %struct.HeapTupleData, align 8
  %7 = add i32 %3, -4
  call void @llvm.lifetime.start.p0(i64 4, ptr nonnull %5) #12
  %8 = zext i32 %7 to i64
  %9 = add i32 %3, 6
  store i32 %9, ptr %5, align 4
  %10 = zext i32 %9 to i64
  %11 = tail call ptr @tuplesort_readtup_alloc(ptr noundef %0, i64 noundef %10) #12
  %12 = getelementptr inbounds nuw i8, ptr %11, i64 10
  call void @llvm.lifetime.start.p0(i64 24, ptr nonnull %6) #12
  store i32 %9, ptr %11, align 4
  %13 = tail call i64 @LogicalTapeRead(ptr noundef %2, ptr noundef nonnull %12, i64 noundef %8) #12
  %.not = icmp eq i64 %13, %8
  br i1 %.not, label %17, label %14

14:                                               ; preds = %4
  %15 = tail call zeroext i1 @errstart_cold(i32 noundef 21, ptr noundef null) #13
  tail call void @llvm.assume(i1 %15)
  %16 = tail call i32 (ptr, ...) @errmsg_internal(ptr noundef nonnull @.str.8) #12
  tail call void @errfinish(ptr noundef nonnull @.str.1, i32 noundef 1175, ptr noundef nonnull @__func__.readtup_heap) #12
  unreachable

17:                                               ; preds = %4
  %18 = getelementptr inbounds nuw i8, ptr %0, i64 96
  %19 = load i32, ptr %18, align 8
  %20 = and i32 %19, 1
  %.not19 = icmp eq i32 %20, 0
  br i1 %.not19, label %26, label %21

21:                                               ; preds = %17
  %22 = call i64 @LogicalTapeRead(ptr noundef %2, ptr noundef nonnull %5, i64 noundef 4) #12
  %.not20 = icmp eq i64 %22, 4
  br i1 %.not20, label %26, label %23

23:                                               ; preds = %21
  %24 = call zeroext i1 @errstart_cold(i32 noundef 21, ptr noundef null) #13
  call void @llvm.assume(i1 %24)
  %25 = call i32 (ptr, ...) @errmsg_internal(ptr noundef nonnull @.str.8) #12
  call void @errfinish(ptr noundef nonnull @.str.1, i32 noundef 1177, ptr noundef nonnull @__func__.readtup_heap) #12
  unreachable

26:                                               ; preds = %21, %17
  store ptr %11, ptr %1, align 8
  %27 = load i32, ptr %11, align 4
  %28 = add i32 %27, 8
  store i32 %28, ptr %6, align 8
  %29 = getelementptr inbounds i8, ptr %11, i64 -8
  %30 = getelementptr inbounds nuw i8, ptr %6, i64 16
  store ptr %29, ptr %30, align 8
  %31 = getelementptr inbounds nuw i8, ptr %0, i64 80
  %32 = load ptr, ptr %31, align 8
  %33 = getelementptr inbounds nuw i8, ptr %32, i64 14
  %34 = load i16, ptr %33, align 2
  %35 = sext i16 %34 to i32
  %36 = getelementptr inbounds nuw i8, ptr %0, i64 104
  %37 = load ptr, ptr %36, align 8
  %38 = getelementptr inbounds nuw i8, ptr %1, i64 16
  %39 = call fastcc i64 @heap_getattr(ptr noundef nonnull %6, i32 noundef %35, ptr noundef %37, ptr noundef nonnull %38)
  %40 = getelementptr inbounds nuw i8, ptr %1, i64 8
  store i64 %39, ptr %40, align 8
  call void @llvm.lifetime.end.p0(i64 24, ptr nonnull %6) #12
  call void @llvm.lifetime.end.p0(i64 4, ptr nonnull %5) #12
  ret void
}